target datalayout = "e-m:e-p270:32:32-p271:32:32-p272:64:64-i64:64-i128:128-f80:128-n8:16:32:64-S128"
target triple = "x86_64-pc-linux-gnu"

%struct.point_t = type { float, float }
%struct.image_t = type { ptr, ptr, ptr, i32, i32, ptr, float, i32, i32, float, [4 x %struct.point_t], ptr, i32 }
%struct._cairo_matrix = type { double, double, double, double, double, double }

; Function Attrs: nounwind uwtable
define dso_local void @set_offset_and_scale(ptr noundef %0, float noundef %1, float noundef %2) #0 {
  %4 = alloca ptr, align 8
  %5 = alloca float, align 4
  %6 = alloca float, align 4
  %7 = alloca %struct._cairo_matrix, align 8
  %8 = alloca float, align 4
  %9 = alloca float, align 4
  store ptr %0, ptr %4, align 8, !tbaa !27
  store float %1, ptr %5, align 4, !tbaa !23
  store float %2, ptr %6, align 4, !tbaa !23
  %10 = load ptr, ptr %4, align 8, !tbaa !27
  %11 = getelementptr inbounds nuw %struct.image_t, ptr %10, i32 0, i32 2
  %12 = load ptr, ptr %11, align 8, !tbaa !35
  %13 = icmp ne ptr %12, null
  br i1 %13, label %15, label %14

14:                                               ; preds = %3
  br label %82

15:                                               ; preds = %3
  call void @llvm.lifetime.start.p0(i64 48, ptr %7) #11
  call void @llvm.lifetime.start.p0(i64 4, ptr %8) #11
  %16 = load ptr, ptr %4, align 8, !tbaa !27
  %17 = getelementptr inbounds nuw %struct.image_t, ptr %16, i32 0, i32 3
  %18 = load i32, ptr %17, align 8, !tbaa !63
  %19 = sitofp i32 %18 to float
  %20 = load float, ptr %5, align 4, !tbaa !23
  %21 = fdiv reassoc nsz arcp contract afn float %19, %20
  store float %21, ptr %8, align 4, !tbaa !23
  call void @llvm.lifetime.start.p0(i64 4, ptr %9) #11
  %22 = load ptr, ptr %4, align 8, !tbaa !27
  %23 = getelementptr inbounds nuw %struct.image_t, ptr %22, i32 0, i32 4
  %24 = load i32, ptr %23, align 4, !tbaa !64
  %25 = sitofp i32 %24 to float
  %26 = load float, ptr %6, align 4, !tbaa !23
  %27 = fdiv reassoc nsz arcp contract afn float %25, %26
  store float %27, ptr %9, align 4, !tbaa !23
  %28 = load float, ptr %8, align 4, !tbaa !23
  %29 = load float, ptr %9, align 4, !tbaa !23
  %30 = fcmp reassoc nsz arcp contract afn ogt float %28, %29
  br i1 %30, label %31, label %33

31:                                               ; preds = %15
  %32 = load float, ptr %8, align 4, !tbaa !23
  br label %35

33:                                               ; preds = %15
  %34 = load float, ptr %9, align 4, !tbaa !23
  br label %35

35:                                               ; preds = %33, %31
  %36 = phi reassoc nsz arcp contract afn float [ %32, %31 ], [ %34, %33 ]
  %37 = load ptr, ptr %4, align 8, !tbaa !27
  %38 = getelementptr inbounds nuw %struct.image_t, ptr %37, i32 0, i32 6
  store float %36, ptr %38, align 8, !tbaa !65
  %39 = load ptr, ptr %4, align 8, !tbaa !27
  %40 = getelementptr inbounds nuw %struct.image_t, ptr %39, i32 0, i32 6
  %41 = load float, ptr %40, align 8, !tbaa !65
  %42 = fpext reassoc nsz arcp contract afn float %41 to double
  %43 = load ptr, ptr %4, align 8, !tbaa !27
  %44 = getelementptr inbounds nuw %struct.image_t, ptr %43, i32 0, i32 6
  %45 = load float, ptr %44, align 8, !tbaa !65
  %46 = fpext reassoc nsz arcp contract afn float %45 to double
  call void @cairo_matrix_init_scale(ptr noundef %7, double noundef %42, double noundef %46)
  %47 = load ptr, ptr %4, align 8, !tbaa !27
  %48 = getelementptr inbounds nuw %struct.image_t, ptr %47, i32 0, i32 2
  %49 = load ptr, ptr %48, align 8, !tbaa !35
  call void @cairo_pattern_set_matrix(ptr noundef %49, ptr noundef %7)
  %50 = load float, ptr %5, align 4, !tbaa !23
  %51 = load ptr, ptr %4, align 8, !tbaa !27
  %52 = getelementptr inbounds nuw %struct.image_t, ptr %51, i32 0, i32 3
  %53 = load i32, ptr %52, align 8, !tbaa !63
  %54 = sitofp i32 %53 to float
  %55 = load ptr, ptr %4, align 8, !tbaa !27
  %56 = getelementptr inbounds nuw %struct.image_t, ptr %55, i32 0, i32 6
  %57 = load float, ptr %56, align 8, !tbaa !65
  %58 = fdiv reassoc nsz arcp contract afn float %54, %57
  %59 = fsub reassoc nsz arcp contract afn float %50, %58
  %60 = fpext reassoc nsz arcp contract afn float %59 to double
  %61 = fdiv reassoc nsz arcp contract afn double %60, 2.000000e+00
  %62 = fadd reassoc nsz arcp contract afn double %61, 5.000000e-01
  %63 = fptosi double %62 to i32
  %64 = load ptr, ptr %4, align 8, !tbaa !27
  %65 = getelementptr inbounds nuw %struct.image_t, ptr %64, i32 0, i32 7
  store i32 %63, ptr %65, align 4, !tbaa !29
  %66 = load float, ptr %6, align 4, !tbaa !23
  %67 = load ptr, ptr %4, align 8, !tbaa !27
  %68 = getelementptr inbounds nuw %struct.image_t, ptr %67, i32 0, i32 4
  %69 = load i32, ptr %68, align 4, !tbaa !64
  %70 = sitofp i32 %69 to float
  %71 = load ptr, ptr %4, align 8, !tbaa !27
  %72 = getelementptr inbounds nuw %struct.image_t, ptr %71, i32 0, i32 6
  %73 = load float, ptr %72, align 8, !tbaa !65
  %74 = fdiv reassoc nsz arcp contract afn float %70, %73
  %75 = fsub reassoc nsz arcp contract afn float %66, %74
  %76 = fpext reassoc nsz arcp contract afn float %75 to double
  %77 = fdiv reassoc nsz arcp contract afn double %76, 2.000000e+00
  %78 = fadd reassoc nsz arcp contract afn double %77, 5.000000e-01
  %79 = fptosi double %78 to i32
  %80 = load ptr, ptr %4, align 8, !tbaa !27
  %81 = getelementptr inbounds nuw %struct.image_t, ptr %80, i32 0, i32 8
  store i32 %79, ptr %81, align 8, !tbaa !34
  call void @llvm.lifetime.end.p0(i64 4, ptr %9) #11
  call void @llvm.lifetime.end.p0(i64 4, ptr %8) #11
  call void @llvm.lifetime.end.p0(i64 48, ptr %7) #11
  br label %82

82:                                               ; preds = %35, %14
  ret void
}