; Function Attrs: nounwind uwtable
define dso_local void @set_offset_and_scale(ptr noundef captures(none) %0, float noundef %1, float noundef %2) local_unnamed_addr #0 {
  %4 = alloca %struct._cairo_matrix, align 8
  %5 = getelementptr inbounds nuw i8, ptr %0, i64 16
  %6 = load ptr, ptr %5, align 8, !tbaa !27
  %.not = icmp eq ptr %6, null
  br i1 %.not, label %40, label %7

7:                                                ; preds = %3
  call void @llvm.lifetime.start.p0(i64 48, ptr nonnull %4) #8
  %8 = getelementptr inbounds nuw i8, ptr %0, i64 24
  %9 = load i32, ptr %8, align 8, !tbaa !40
  %10 = sitofp i32 %9 to float
  %11 = fdiv reassoc nsz arcp contract afn float %10, %1
  %12 = getelementptr inbounds nuw i8, ptr %0, i64 28
  %13 = load i32, ptr %12, align 4, !tbaa !41
  %14 = sitofp i32 %13 to float
  %15 = fdiv reassoc nsz arcp contract afn float %14, %2
  %16 = fcmp reassoc nsz arcp contract afn ogt float %11, %15
  %17 = select reassoc nsz arcp contract afn i1 %16, float %11, float %15
  %18 = getelementptr inbounds nuw i8, ptr %0, i64 40
  store float %17, ptr %18, align 8, !tbaa !42
  %19 = fpext reassoc nsz arcp contract afn float %17 to double
  call void @cairo_matrix_init_scale(ptr noundef nonnull %4, double noundef %19, double noundef %19) #8
  %20 = load ptr, ptr %5, align 8, !tbaa !27
  call void @cairo_pattern_set_matrix(ptr noundef %20, ptr noundef nonnull %4) #8
  %21 = load i32, ptr %8, align 8, !tbaa !40
  %22 = sitofp i32 %21 to float
  %23 = load float, ptr %18, align 8, !tbaa !42
  %24 = fdiv reassoc nsz arcp contract afn float %22, %23
  %25 = fsub reassoc nsz arcp contract afn float %1, %24
  %26 = fpext reassoc nsz arcp contract afn float %25 to double
  %27 = fmul reassoc nsz arcp contract afn double %26, 5.000000e-01
  %28 = fadd reassoc nsz arcp contract afn double %27, 5.000000e-01
  %29 = fptosi double %28 to i32
  %30 = getelementptr inbounds nuw i8, ptr %0, i64 44
  store i32 %29, ptr %30, align 4, !tbaa !18
  %31 = load i32, ptr %12, align 4, !tbaa !41
  %32 = sitofp i32 %31 to float
  %33 = fdiv reassoc nsz arcp contract afn float %32, %23
  %34 = fsub reassoc nsz arcp contract afn float %2, %33
  %35 = fpext reassoc nsz arcp contract afn float %34 to double
  %36 = fmul reassoc nsz arcp contract afn double %35, 5.000000e-01
  %37 = fadd reassoc nsz arcp contract afn double %36, 5.000000e-01
  %38 = fptosi double %37 to i32
  %39 = getelementptr inbounds nuw i8, ptr %0, i64 48
  store i32 %38, ptr %39, align 8, !tbaa !26
  call void @llvm.lifetime.end.p0(i64 48, ptr nonnull %4) #8
  br label %40

40:                                               ; preds = %3, %7
  ret void
}